Certificate:
    Data:
        Version: 3 (0x2)
        Serial Number: 4660 (0x1234)
    Signature Algorithm: sha256WithRSAEncryption
        Issuer: C=AU, ST=NSW, L=Sydney, O=projectwoo, OU=211, CN=Will Wu/emailAddress=willyingtingwu@gmail.com
        Validity
            Not Before: Aug 18 12:32:37 2018 GMT
            Not After : Aug 18 12:32:37 2019 GMT
        Subject: C=AU, ST=NSW, O=projectwoo, OU=211, CN=Will Wu/emailAddress=willyingtingwu@gmail.com
        Subject Public Key Info:
            Public Key Algorithm: rsaEncryption
                Public-Key: (2048 bit)
                Modulus:
                    00:dc:ea:22:85:36:bc:c3:42:ee:01:58:b9:f9:4b:
                    96:64:ae:ac:ff:d9:ca:a0:96:3e:f5:1b:05:a9:bb:
                    ef:7b:7e:06:28:87:f1:fd:5c:48:25:fe:0f:17:10:
                    11:c2:60:d0:85:4e:fa:05:e0:f9:11:16:81:89:21:
                    27:45:bf:6c:7d:18:1e:c8:5d:a9:91:07:05:87:40:
                    a6:51:a6:87:13:a5:60:b3:e6:e9:56:58:61:91:20:
                    d0:14:4f:fd:07:66:8b:f0:4b:82:aa:20:52:95:8d:
                    cc:b2:24:4b:29:1e:e5:5f:e4:ec:bd:39:bb:17:a0:
                    5b:cf:86:7e:b7:9f:5c:0c:19:53:ca:91:bc:5b:d0:
                    31:b7:f9:df:7d:70:01:de:33:0e:fa:be:90:50:9a:
                    98:a5:f0:ea:3d:99:ac:73:83:f8:16:20:97:0b:af:
                    d6:c8:da:f6:90:93:e7:0e:95:63:ad:02:81:10:f7:
                    3a:4c:0a:b6:16:0a:cc:92:6a:1d:ca:29:71:62:c7:
                    cf:3f:3a:8a:88:9a:7c:c6:14:bc:57:7f:5e:38:8a:
                    23:22:15:7f:f7:7f:d6:63:cc:5e:23:ae:a6:10:c4:
                    75:70:38:ed:35:b3:10:e9:c8:71:e9:27:d5:db:3b:
                    a9:82:50:20:60:dd:85:8b:5b:46:d7:10:3b:a3:fc:
                    5f:ef
                Exponent: 65537 (0x10001)
        X509v3 extensions:
            X509v3 Basic Constraints: 
                CA:FALSE
            Netscape Comment: 
                OpenSSL Generated Certificate
            X509v3 Subject Key Identifier: 
                AA:E8:DC:C8:0F:43:A7:CC:FD:D9:65:4E:B5:41:1D:33:16:79:17:6A
            X509v3 Authority Key Identifier: 
                keyid:6C:01:8C:51:E7:52:C7:18:22:E5:1C:C2:B3:18:82:60:56:DD:8C:68

    Signature Algorithm: sha256WithRSAEncryption
         2a:a3:3d:af:c4:4c:90:c0:75:08:65:95:b4:58:f1:47:bf:05:
         22:25:6c:68:a6:7e:57:84:8a:23:db:bc:df:60:e5:da:04:c3:
         ed:fa:7f:9b:28:a2:b2:40:74:93:67:79:04:f7:6a:51:5d:2e:
         8b:5c:ec:dd:35:85:62:9f:11:de:8a:8d:70:f0:c5:49:7c:e2:
         4b:82:f1:ca:ee:18:a3:b4:ce:4e:c8:43:28:34:76:0f:1d:33:
         67:2b:db:50:ea:46:c9:37:15:70:c0:70:36:12:d4:79:67:1b:
         90:3c:f0:13:26:5c:a1:04:5d:d6:fe:85:8a:f5:29:c9:f7:7b:
         a9:56:b3:58:97:2a:a8:3a:8f:81:e3:7e:22:cc:8c:f4:36:3f:
         d8:9a:38:2f:92:06:39:27:9d:cc:f3:2a:9e:59:ea:16:31:2f:
         db:a4:9b:82:f5:0e:cd:18:3c:16:41:20:7c:ce:1c:33:5a:23:
         fa:89:c8:1f:a8:6d:76:66:46:3c:01:5f:d3:ed:1e:a2:80:a2:
         4a:4f:91:36:de:22:bd:19:c7:95:fe:47:58:76:c9:f8:89:96:
         12:a2:bc:b2:42:14:fc:3c:dc:90:8c:e6:a0:96:a6:74:37:d0:
         6b:1e:b0:5f:25:35:d3:3d:e7:ef:ec:1a:2a:ff:2a:ed:b3:3f:
         75:90:d9:73:f2:ec:d3:69:2b:d7:55:b5:0c:7c:0a:87:e1:b3:
         47:8e:08:6f:ff:f4:d4:87:c9:87:0d:30:28:c4:e5:ea:d4:c4:
         9b:d6:d4:99:0d:a3:eb:cc:ea:0f:ed:d1:98:4a:97:69:ed:02:
         f5:7c:75:a1:d7:5b:fd:8b:8e:4f:d5:13:e0:7b:e0:3e:45:ba:
         43:fe:49:af:d8:21:44:d7:1c:f1:64:31:91:0e:7c:ab:12:c1:
         93:c6:fc:bd:5f:a2:b5:28:fb:65:ca:4d:1b:d0:e5:d6:fd:cf:
         bd:f6:0f:08:09:1e:22:62:33:89:46:a3:a6:45:18:4e:71:0d:
         85:e5:6c:7d:2c:ed:87:13:3b:c4:d2:f8:8f:e5:c9:f0:b6:ca:
         da:f8:08:24:e0:b1:cb:64:e8:42:d7:61:d0:ba:cf:60:ed:19:
         f3:f0:8c:4b:39:e8:47:d6:b7:8c:aa:70:b2:ff:5e:fe:1a:1c:
         c1:a5:0c:f1:80:1d:02:63:fa:00:6e:d8:51:5c:75:2c:92:c8:
         83:5e:3e:aa:3a:48:4d:1d:e7:55:1d:6c:e3:6c:95:21:c7:33:
         04:2e:e6:82:fd:8b:a7:88:9b:f6:df:84:2d:a6:ca:6b:a8:ee:
         e8:7d:e3:51:eb:8f:fc:b1:5b:e6:7e:9e:a9:b6:d6:a9:7c:40:
         9d:f7:fa:8f:e6:b0:c3:04
-----BEGIN CERTIFICATE-----
MIIE+zCCAuOgAwIBAgICEjQwDQYJKoZIhvcNAQELBQAwgYoxCzAJBgNVBAYTAkFV
MQwwCgYDVQQIDANOU1cxDzANBgNVBAcMBlN5ZG5leTETMBEGA1UECgwKcHJvamVj
dHdvbzEMMAoGA1UECwwDMjExMRAwDgYDVQQDDAdXaWxsIFd1MScwJQYJKoZIhvcN
AQkBFhh3aWxseWluZ3Rpbmd3dUBnbWFpbC5jb20wHhcNMTgwODE4MTIzMjM3WhcN
MTkwODE4MTIzMjM3WjB5MQswCQYDVQQGEwJBVTEMMAoGA1UECAwDTlNXMRMwEQYD
VQQKDApwcm9qZWN0d29vMQwwCgYDVQQLDAMyMTExEDAOBgNVBAMMB1dpbGwgV3Ux
JzAlBgkqhkiG9w0BCQEWGHdpbGx5aW5ndGluZ3d1QGdtYWlsLmNvbTCCASIwDQYJ
KoZIhvcNAQEBBQADggEPADCCAQoCggEBANzqIoU2vMNC7gFYuflLlmSurP/ZyqCW
PvUbBam773t+BiiH8f1cSCX+DxcQEcJg0IVO+gXg+REWgYkhJ0W/bH0YHshdqZEH
BYdAplGmhxOlYLPm6VZYYZEg0BRP/Qdmi/BLgqogUpWNzLIkSyke5V/k7L05uxeg
W8+GfrefXAwZU8qRvFvQMbf5331wAd4zDvq+kFCamKXw6j2ZrHOD+BYglwuv1sja
9pCT5w6VY60CgRD3OkwKthYKzJJqHcopcWLHzz86ioiafMYUvFd/XjiKIyIVf/d/
1mPMXiOuphDEdXA47TWzEOnIcekn1ds7qYJQIGDdhYtbRtcQO6P8X+8CAwEAAaN7
MHkwCQYDVR0TBAIwADAsBglghkgBhvhCAQ0EHxYdT3BlblNTTCBHZW5lcmF0ZWQg
Q2VydGlmaWNhdGUwHQYDVR0OBBYEFKro3MgPQ6fM/dllTrVBHTMWeRdqMB8GA1Ud
IwQYMBaAFGwBjFHnUscYIuUcwrMYgmBW3YxoMA0GCSqGSIb3DQEBCwUAA4ICAQAq
oz2vxEyQwHUIZZW0WPFHvwUiJWxopn5XhIoj27zfYOXaBMPt+n+bKKKyQHSTZ3kE
92pRXS6LXOzdNYVinxHeio1w8MVJfOJLgvHK7hijtM5OyEMoNHYPHTNnK9tQ6kbJ
NxVwwHA2EtR5ZxuQPPATJlyhBF3W/oWK9SnJ93upVrNYlyqoOo+B434izIz0Nj/Y
mjgvkgY5J53M8yqeWeoWMS/bpJuC9Q7NGDwWQSB8zhwzWiP6icgfqG12ZkY8AV/T
7R6igKJKT5E23iK9GceV/kdYdsn4iZYSoryyQhT8PNyQjOaglqZ0N9BrHrBfJTXT
Pefv7Boq/yrtsz91kNlz8uzTaSvXVbUMfAqH4bNHjghv//TUh8mHDTAoxOXq1MSb
1tSZDaPrzOoP7dGYSpdp7QL1fHWh11v9i45P1RPge+A+RbpD/kmv2CFE1xzxZDGR
DnyrEsGTxvy9X6K1KPtlyk0b0OXW/c+99g8ICR4iYjOJRqOmRRhOcQ2F5Wx9LO2H
EzvE0viP5cnwtsra+Agk4LHLZOhC12HQus9g7Rnz8IxLOehH1reMqnCy/17+GhzB
pQzxgB0CY/oAbthRXHUsksiDXj6qOkhNHedVHWzjbJUhxzMELuaC/YuniJv234Qt
psprqO7ofeNR64/8sVvmfp6pttapfECd9/qP5rDDBA==
-----END CERTIFICATE-----
